ccopy_reg
_reconstructor
p0
(cgoogle.oauth2.credentials
Credentials
p1
c__builtin__
object
p2
Ntp3
Rp4
(dp5
S'_quota_project_id'
p6
NsS'_token_uri'
p7
Vhttps://oauth2.googleapis.com/token
p8
sS'_client_secret'
p9
VxfkNan749TmEo1bfc7bCyWQg
p10
sS'_id_token'
p11
NsS'token'
p12
Vya29.a0AfH6SMCdJa92tVhIL4MhdUYvMxjBT6bee3w-QLl1ulqsUOevHIdJoVxF10AFeaDl5xwYmmbyBqZ9yXX488u6uawGF2X7Xm8mvsDFd35Bs634Uq6jO1_A-9HM5Ql3Jmy_QI2PzCRWbJfFcd0gZneqo5RBIUYqMQw2ZzSjqBHdZTc
p13
sS'_refresh_token'
p14
V1//05bJZzPClN7YoCgYIARAAGAUSNwF-L9Ird7NqSL82S7L9ZQXP8-odRov0JtRuq_yOtUZ-QCMW6CoOV5ZbA7GvRoXG3Tx1xC8LEZQ
p15
sS'_scopes'
p16
(lp17
S'https://www.googleapis.com/auth/gmail.readonly'
p18
asS'_client_id'
p19
V445383179299-j24faon7i3i5ma80l6aipuk78ii5g9la.apps.googleusercontent.com
p20
sS'expiry'
p21
cdatetime
datetime
p22
(S'\x07\xe4\x0c\x03\x17\r\r\x02\x15\xcc'
p23
tp24
Rp25
sb.